; Function Attrs: nounwind uwtable
define internal range(i32 -1, 1) i32 @H5P__fcrt_shmsg_index_minsize_dec(ptr noundef captures(none) %0, ptr noundef captures(none) %1) #0 {
  %3 = load ptr, ptr %0, align 8
  %4 = getelementptr inbounds nuw i8, ptr %3, i64 1
  store ptr %4, ptr %0, align 8
  %5 = load i8, ptr %3, align 1
  %.not = icmp eq i8 %5, 4
  br i1 %.not, label %.preheader, label %6

6:                                                ; preds = %2
  %7 = load i64, ptr @H5E_PLIST_g, align 8
  %8 = load i64, ptr @H5E_BADVALUE_g, align 8
  %9 = tail call i32 (ptr, ptr, i32, i64, i64, ptr, ...) @H5E_printf_stack(ptr noundef nonnull @.str.1, ptr noundef nonnull @__func__.H5P__fcrt_shmsg_index_minsize_dec, i32 noundef 1068, i64 noundef %7, i64 noundef %8, ptr noundef nonnull @.str.67) #6
  br label %.loopexit

.preheader:                                       ; preds = %2, %.preheader
  %10 = phi ptr [ %36, %.preheader ], [ %4, %2 ]
  %indvars.iv = phi i64 [ %indvars.iv.next, %.preheader ], [ 0, %2 ]
  %11 = load i8, ptr %10, align 1
  %12 = zext i8 %11 to i32
  %13 = getelementptr inbounds nuw i32, ptr %1, i64 %indvars.iv
  store i32 %12, ptr %13, align 4
  %14 = load ptr, ptr %0, align 8
  %15 = getelementptr inbounds nuw i8, ptr %14, i64 1
  store ptr %15, ptr %0, align 8
  %16 = load i8, ptr %15, align 1
  %17 = zext i8 %16 to i32
  %18 = shl nuw nsw i32 %17, 8
  %19 = load i32, ptr %13, align 4
  %20 = or i32 %18, %19
  store i32 %20, ptr %13, align 4
  %21 = load ptr, ptr %0, align 8
  %22 = getelementptr inbounds nuw i8, ptr %21, i64 1
  store ptr %22, ptr %0, align 8
  %23 = load i8, ptr %22, align 1
  %24 = zext i8 %23 to i32
  %25 = shl nuw nsw i32 %24, 16
  %26 = load i32, ptr %13, align 4
  %27 = or i32 %25, %26
  store i32 %27, ptr %13, align 4
  %28 = load ptr, ptr %0, align 8
  %29 = getelementptr inbounds nuw i8, ptr %28, i64 1
  store ptr %29, ptr %0, align 8
  %30 = load i8, ptr %29, align 1
  %31 = zext i8 %30 to i32
  %32 = shl nuw i32 %31, 24
  %33 = load i32, ptr %13, align 4
  %34 = or i32 %32, %33
  store i32 %34, ptr %13, align 4
  %35 = load ptr, ptr %0, align 8
  %36 = getelementptr inbounds nuw i8, ptr %35, i64 1
  store ptr %36, ptr %0, align 8
  %indvars.iv.next = add nuw nsw i64 %indvars.iv, 1
  %exitcond.not = icmp eq i64 %indvars.iv.next, 8
  br i1 %exitcond.not, label %.loopexit, label %.preheader

.loopexit:                                        ; preds = %.preheader, %6
  %.0 = phi i32 [ -1, %6 ], [ 0, %.preheader ]
  ret i32 %.0
}